target datalayout = "e-m:e-p270:32:32-p271:32:32-p272:64:64-i64:64-i128:128-f80:128-n8:16:32:64-S128"
target triple = "x86_64-pc-linux-gnu"

%struct._capture_file = type { ptr, i32, ptr, ptr, i8, i8, i8, i64, i16, i32, i32, i32, ptr, i32, i64, i32, i32, i32, i32, i8, i32, %struct.nstime_t, i32, ptr, ptr, ptr, i8, i8, i32, ptr, i8, i8, i8, i8, i8, i32, i32, i8, ptr, i32, i32, i8, %struct.packet_provider_data, i32, i32, %struct.epan_column_info, ptr, ptr, ptr, %struct.wtap_rec, %struct.Buffer, ptr, i64, i32 }
%struct.nstime_t = type { i64, i32 }
%struct.packet_provider_data = type { ptr, ptr, ptr, ptr, ptr, ptr }
%struct.epan_column_info = type { ptr, i32, ptr, ptr, ptr, %struct.col_expr_t, i8, ptr }
%struct.col_expr_t = type { ptr, ptr }
%struct.wtap_rec = type { i32, i32, i32, %struct.nstime_t, i32, %struct.nstime_t, i8, %union.anon, ptr, i8, %struct.Buffer, %struct.Buffer }
%union.anon = type { %struct.wtap_packet_header }
%struct.wtap_packet_header = type { i32, i32, i32, i32, %union.wtap_pseudo_header }
%union.wtap_pseudo_header = type { %struct.erf_mc_phdr }
%struct.erf_mc_phdr = type { %struct.erf_phdr, [16 x %struct.erf_ehdr], %union.anon.1 }
%struct.erf_phdr = type { i64, i8, i8, i16, i16, i16 }
%struct.erf_ehdr = type { i64 }
%union.anon.1 = type { i32 }
%struct.Buffer = type { ptr, i64, i64, i64 }
%struct._frame_data = type <{ i32, i32, i32, i32, i32, [4 x i8], i64, ptr, ptr, ptr, i8, i16, [5 x i8], %struct.nstime_t, %struct.nstime_t, i32, i32 }>
%struct.epan_dissect = type { ptr, ptr, ptr, %struct._packet_info }
%struct._packet_info = type { ptr, ptr, i32, i32, %struct.nstime_t, %struct.nstime_t, %struct.nstime_t, i8, ptr, ptr, ptr, ptr, %struct._address, %struct._address, %struct._address, %struct._address, %struct._address, %struct._address, i32, ptr, i8, [3 x i8], %struct.anon.3, i32, i32, i32, i32, ptr, i8, ptr, ptr, i16, i16, i32, i32, i16, i32, i32, ptr, ptr, ptr, i8, i8, i16, i16, i16, i32, i16, i16, ptr, ptr, ptr, ptr, ptr, i32, i32 }
%struct._address = type { i32, i32, ptr, ptr }
%struct.anon.3 = type { i8, [3 x i8] }

@cfile = hidden global %struct._capture_file zeroinitializer, align 8
@__func__.sharkd_filter = private unnamed_addr constant [14 x i8] c"sharkd_filter\00", align 1

; Function Attrs: null_pointer_is_valid sspstrong uwtable
define hidden ptr @sharkd_get_frame(i32 noundef %0) #0 {
  %2 = alloca i32, align 4
  store i32 %0, ptr %2, align 4
  %3 = load ptr, ptr getelementptr inbounds nuw (%struct.packet_provider_data, ptr getelementptr inbounds nuw (%struct._capture_file, ptr @cfile, i32 0, i32 42), i32 0, i32 4), align 8
  %4 = load i32, ptr %2, align 4
  %5 = call ptr @frame_data_sequence_find(ptr noundef %3, i32 noundef %4)
  ret ptr %5
}

; Function Attrs: null_pointer_is_valid sspstrong uwtable
define hidden i32 @sharkd_filter(ptr noundef %0, ptr noundef %1) #0 {
  %3 = alloca i32, align 4
  %4 = alloca ptr, align 8
  %5 = alloca ptr, align 8
  %6 = alloca ptr, align 8
  %7 = alloca i32, align 4
  %8 = alloca i32, align 4
  %9 = alloca i32, align 4
  %10 = alloca %struct.wtap_rec, align 8
  %11 = alloca i32, align 4
  %12 = alloca ptr, align 8
  %13 = alloca ptr, align 8
  %14 = alloca i8, align 1
  %15 = alloca %struct.epan_dissect, align 8
  %16 = alloca i32, align 4
  %17 = alloca ptr, align 8
  store ptr %0, ptr %4, align 8
  store ptr %1, ptr %5, align 8
  call void @llvm.lifetime.start.p0(i64 8, ptr %6) #5
  store ptr null, ptr %6, align 8
  call void @llvm.lifetime.start.p0(i64 4, ptr %7) #5
  call void @llvm.lifetime.start.p0(i64 4, ptr %8) #5
  store i32 0, ptr %8, align 4
  call void @llvm.lifetime.start.p0(i64 4, ptr %9) #5
  call void @llvm.lifetime.start.p0(i64 312, ptr %10) #5
  call void @llvm.lifetime.start.p0(i64 4, ptr %11) #5
  call void @llvm.lifetime.start.p0(i64 8, ptr %12) #5
  store ptr null, ptr %12, align 8
  call void @llvm.lifetime.start.p0(i64 8, ptr %13) #5
  call void @llvm.lifetime.start.p0(i64 1, ptr %14) #5
  call void @llvm.lifetime.start.p0(i64 464, ptr %15) #5
  %18 = load ptr, ptr %4, align 8
  %19 = call zeroext i1 @dfilter_compile_full(ptr noundef %18, ptr noundef %6, ptr noundef null, i32 noundef 6, ptr noundef @__func__.sharkd_filter)
  br i1 %19, label %21, label %20

20:                                               ; preds = %2
  store i32 -1, ptr %3, align 4
  store i32 1, ptr %16, align 4
  br label %113

21:                                               ; preds = %2
  %22 = load ptr, ptr %6, align 8
  %23 = icmp eq ptr %22, null
  br i1 %23, label %24, label %26

24:                                               ; preds = %21
  %25 = load ptr, ptr %5, align 8
  store ptr null, ptr %25, align 8
  store i32 0, ptr %3, align 4
  store i32 1, ptr %16, align 4
  br label %113

26:                                               ; preds = %21
  %27 = load i32, ptr getelementptr inbounds nuw (%struct._capture_file, ptr @cfile, i32 0, i32 13), align 8
  store i32 %27, ptr %9, align 4
  call void @wtap_rec_init(ptr noundef %10, i64 noundef 1514)
  %28 = load ptr, ptr @cfile, align 8
  call void @epan_dissect_init(ptr noundef %15, ptr noundef %28, i1 noundef zeroext true, i1 noundef zeroext false)
  store i8 0, ptr %14, align 1
  %29 = load i32, ptr %9, align 4
  %30 = udiv i32 %29, 8
  %31 = add i32 2, %30
  %32 = zext i32 %31 to i64
  %33 = call noalias ptr @g_malloc(i64 noundef %32) #6
  store ptr %33, ptr %13, align 8
  store i32 1, ptr %7, align 4
  br label %34

34:                                               ; preds = %92, %26
  %35 = load i32, ptr %7, align 4
  %36 = load i32, ptr %9, align 4
  %37 = icmp ule i32 %35, %36
  br i1 %37, label %38, label %95

38:                                               ; preds = %34
  call void @llvm.lifetime.start.p0(i64 8, ptr %17) #5
  %39 = load i32, ptr %7, align 4
  %40 = call ptr @sharkd_get_frame(i32 noundef %39)
  store ptr %40, ptr %17, align 8
  %41 = load i32, ptr %7, align 4
  %42 = and i32 %41, 7
  %43 = icmp eq i32 %42, 0
  br i1 %43, label %44, label %52

44:                                               ; preds = %38
  %45 = load i8, ptr %14, align 1
  %46 = load ptr, ptr %13, align 8
  %47 = load i32, ptr %7, align 4
  %48 = udiv i32 %47, 8
  %49 = sub i32 %48, 1
  %50 = zext i32 %49 to i64
  %51 = getelementptr i8, ptr %46, i64 %50
  store i8 %45, ptr %51, align 1
  store i8 0, ptr %14, align 1
  br label %52

52:                                               ; preds = %44, %38
  %53 = load ptr, ptr getelementptr inbounds nuw (%struct._capture_file, ptr @cfile, i32 0, i32 42), align 8
  %54 = load ptr, ptr %17, align 8
  %55 = getelementptr inbounds nuw %struct._frame_data, ptr %54, i32 0, i32 6
  %56 = load i64, ptr %55, align 8
  %57 = call zeroext i1 @wtap_seek_read(ptr noundef %53, i64 noundef %56, ptr noundef %10, ptr noundef %11, ptr noundef %12)
  br i1 %57, label %59, label %58

58:                                               ; preds = %52
  store i32 2, ptr %16, align 4
  br label %89

59:                                               ; preds = %52
  %60 = load ptr, ptr %6, align 8
  call void @epan_dissect_prime_with_dfilter(ptr noundef %15, ptr noundef %60)
  %61 = load ptr, ptr %17, align 8
  %62 = getelementptr inbounds nuw %struct._frame_data, ptr %61, i32 0, i32 11
  %63 = load i16, ptr %62, align 1
  %64 = and i16 %63, -33
  %65 = or i16 %64, 0
  store i16 %65, ptr %62, align 1
  %66 = load i32, ptr %7, align 4
  %67 = icmp ne i32 %66, 1
  %68 = select i1 %67, i32 1, i32 0
  %69 = load ptr, ptr %17, align 8
  %70 = getelementptr inbounds nuw %struct._frame_data, ptr %69, i32 0, i32 15
  store i32 %68, ptr %70, align 8
  %71 = load i32, ptr %8, align 4
  %72 = load ptr, ptr %17, align 8
  %73 = getelementptr inbounds nuw %struct._frame_data, ptr %72, i32 0, i32 16
  store i32 %71, ptr %73, align 4
  %74 = load i16, ptr getelementptr inbounds nuw (%struct._capture_file, ptr @cfile, i32 0, i32 8), align 8
  %75 = zext i16 %74 to i32
  %76 = load ptr, ptr %17, align 8
  call void @epan_dissect_run(ptr noundef %15, i32 noundef %75, ptr noundef %10, ptr noundef %76, ptr noundef null)
  %77 = load ptr, ptr %6, align 8
  %78 = call zeroext i1 @dfilter_apply_edt(ptr noundef %77, ptr noundef %15)
  br i1 %78, label %79, label %88

79:                                               ; preds = %59
  %80 = load i32, ptr %7, align 4
  %81 = urem i32 %80, 8
  %82 = shl i32 1, %81
  %83 = load i8, ptr %14, align 1
  %84 = zext i8 %83 to i32
  %85 = or i32 %84, %82
  %86 = trunc i32 %85 to i8
  store i8 %86, ptr %14, align 1
  %87 = load i32, ptr %7, align 4
  store i32 %87, ptr %8, align 4
  br label %88

88:                                               ; preds = %79, %59
  call void @wtap_rec_reset(ptr noundef %10)
  call void @epan_dissect_reset(ptr noundef %15)
  store i32 0, ptr %16, align 4
  br label %89

89:                                               ; preds = %88, %58
  call void @llvm.lifetime.end.p0(i64 8, ptr %17) #5
  %90 = load i32, ptr %16, align 4
  switch i32 %90, label %115 [
    i32 0, label %91
    i32 2, label %95
  ]

91:                                               ; preds = %89
  br label %92

92:                                               ; preds = %91
  %93 = load i32, ptr %7, align 4
  %94 = add i32 %93, 1
  store i32 %94, ptr %7, align 4
  br label %34, !llvm.loop !12

95:                                               ; preds = %89, %34
  %96 = load i32, ptr %7, align 4
  %97 = and i32 %96, 7
  %98 = icmp eq i32 %97, 0
  br i1 %98, label %99, label %102

99:                                               ; preds = %95
  %100 = load i32, ptr %7, align 4
  %101 = add i32 %100, -1
  store i32 %101, ptr %7, align 4
  br label %102

102:                                              ; preds = %99, %95
  %103 = load i8, ptr %14, align 1
  %104 = load ptr, ptr %13, align 8
  %105 = load i32, ptr %7, align 4
  %106 = udiv i32 %105, 8
  %107 = zext i32 %106 to i64
  %108 = getelementptr i8, ptr %104, i64 %107
  store i8 %103, ptr %108, align 1
  call void @wtap_rec_cleanup(ptr noundef %10)
  call void @epan_dissect_cleanup(ptr noundef %15)
  %109 = load ptr, ptr %6, align 8
  call void @dfilter_free(ptr noundef %109)
  %110 = load ptr, ptr %13, align 8
  %111 = load ptr, ptr %5, align 8
  store ptr %110, ptr %111, align 8
  %112 = load i32, ptr %7, align 4
  store i32 %112, ptr %3, align 4
  store i32 1, ptr %16, align 4
  br label %113

113:                                              ; preds = %102, %24, %20
  call void @llvm.lifetime.end.p0(i64 464, ptr %15) #5
  call void @llvm.lifetime.end.p0(i64 1, ptr %14) #5
  call void @llvm.lifetime.end.p0(i64 8, ptr %13) #5
  call void @llvm.lifetime.end.p0(i64 8, ptr %12) #5
  call void @llvm.lifetime.end.p0(i64 4, ptr %11) #5
  call void @llvm.lifetime.end.p0(i64 312, ptr %10) #5
  call void @llvm.lifetime.end.p0(i64 4, ptr %9) #5
  call void @llvm.lifetime.end.p0(i64 4, ptr %8) #5
  call void @llvm.lifetime.end.p0(i64 4, ptr %7) #5
  call void @llvm.lifetime.end.p0(i64 8, ptr %6) #5
  %114 = load i32, ptr %3, align 4
  ret i32 %114

115:                                              ; preds = %89
  unreachable
}