; Function Attrs: null_pointer_is_valid sspstrong uwtable
define hidden i32 @sharkd_filter(ptr noundef %0, ptr noundef writeonly captures(none) %1) local_unnamed_addr #0 {
  %3 = alloca ptr, align 8
  %4 = alloca %struct.wtap_rec, align 8
  %5 = alloca i32, align 4
  %6 = alloca ptr, align 8
  %7 = alloca %struct.epan_dissect, align 8
  call void @llvm.lifetime.start.p0(i64 8, ptr nonnull %3) #7
  store ptr null, ptr %3, align 8
  call void @llvm.lifetime.start.p0(i64 312, ptr nonnull %4) #7
  call void @llvm.lifetime.start.p0(i64 4, ptr nonnull %5) #7
  call void @llvm.lifetime.start.p0(i64 8, ptr nonnull %6) #7
  store ptr null, ptr %6, align 8
  call void @llvm.lifetime.start.p0(i64 464, ptr nonnull %7) #7
  %8 = call zeroext i1 @dfilter_compile_full(ptr noundef %0, ptr noundef nonnull %3, ptr noundef null, i32 noundef 6, ptr noundef nonnull @__func__.sharkd_filter)
  br i1 %8, label %9, label %56

9:                                                ; preds = %2
  %10 = load ptr, ptr %3, align 8
  %11 = icmp eq ptr %10, null
  br i1 %11, label %.sink.split, label %12

12:                                               ; preds = %9
  %13 = load i32, ptr getelementptr inbounds nuw (i8, ptr @cfile, i64 72), align 8
  call void @wtap_rec_init(ptr noundef nonnull %4, i64 noundef 1514)
  %14 = load ptr, ptr @cfile, align 8
  call void @epan_dissect_init(ptr noundef nonnull %7, ptr noundef %14, i1 noundef zeroext true, i1 noundef zeroext false)
  %15 = lshr i32 %13, 3
  %16 = add nuw nsw i32 %15, 2
  %17 = zext nneg i32 %16 to i64
  %18 = call noalias ptr @g_malloc(i64 noundef %17) #9
  %.not44 = icmp eq i32 %13, 0
  br i1 %.not44, label %._crit_edge, label %.lr.ph

.lr.ph:                                           ; preds = %12, %33
  %.03147 = phi i8 [ %.4, %33 ], [ 0, %12 ]
  %.03246 = phi i32 [ %48, %33 ], [ 1, %12 ]
  %.03445 = phi i32 [ %.236, %33 ], [ 0, %12 ]
  %19 = load ptr, ptr getelementptr inbounds nuw (i8, ptr @cfile, i64 256), align 8
  %20 = call ptr @frame_data_sequence_find(ptr noundef %19, i32 noundef %.03246)
  %21 = and i32 %.03246, 7
  %22 = icmp eq i32 %21, 0
  br i1 %22, label %23, label %28

23:                                               ; preds = %.lr.ph
  %24 = lshr exact i32 %.03246, 3
  %25 = add nsw i32 %24, -1
  %26 = zext i32 %25 to i64
  %27 = getelementptr i8, ptr %18, i64 %26
  store i8 %.03147, ptr %27, align 1
  br label %28

28:                                               ; preds = %23, %.lr.ph
  %.2 = phi i8 [ 0, %23 ], [ %.03147, %.lr.ph ]
  %29 = load ptr, ptr getelementptr inbounds nuw (i8, ptr @cfile, i64 224), align 8
  %30 = getelementptr inbounds nuw i8, ptr %20, i64 24
  %31 = load i64, ptr %30, align 8
  %32 = call zeroext i1 @wtap_seek_read(ptr noundef %29, i64 noundef %31, ptr noundef nonnull %4, ptr noundef nonnull %5, ptr noundef nonnull %6)
  br i1 %32, label %33, label %._crit_edge

33:                                               ; preds = %28
  %34 = load ptr, ptr %3, align 8
  call void @epan_dissect_prime_with_dfilter(ptr noundef nonnull %7, ptr noundef %34)
  %35 = getelementptr inbounds nuw i8, ptr %20, i64 57
  %36 = load i16, ptr %35, align 1
  %37 = and i16 %36, -33
  store i16 %37, ptr %35, align 1
  %.not37 = icmp ne i32 %.03246, 1
  %38 = zext i1 %.not37 to i32
  %39 = getelementptr inbounds nuw i8, ptr %20, i64 96
  store i32 %38, ptr %39, align 8
  %40 = getelementptr inbounds nuw i8, ptr %20, i64 100
  store i32 %.03445, ptr %40, align 4
  %41 = load i16, ptr getelementptr inbounds nuw (i8, ptr @cfile, i64 48), align 8
  %42 = zext i16 %41 to i32
  call void @epan_dissect_run(ptr noundef nonnull %7, i32 noundef %42, ptr noundef nonnull %4, ptr noundef %20, ptr noundef null)
  %43 = load ptr, ptr %3, align 8
  %44 = call zeroext i1 @dfilter_apply_edt(ptr noundef %43, ptr noundef nonnull %7)
  %45 = shl nuw nsw i32 1, %21
  %46 = trunc nuw i32 %45 to i8
  %.236 = select i1 %44, i32 %.03246, i32 %.03445
  %47 = select i1 %44, i8 %46, i8 0
  %.4 = or i8 %47, %.2
  call void @wtap_rec_reset(ptr noundef nonnull %4)
  call void @epan_dissect_reset(ptr noundef nonnull %7)
  %48 = add i32 %.03246, 1
  %.not = icmp ugt i32 %48, %13
  br i1 %.not, label %._crit_edge, label %.lr.ph, !llvm.loop !12

._crit_edge:                                      ; preds = %33, %28, %12
  %.032.lcssa = phi i32 [ 1, %12 ], [ %.03246, %28 ], [ %48, %33 ]
  %.1 = phi i8 [ 0, %12 ], [ %.2, %28 ], [ %.4, %33 ]
  %49 = and i32 %.032.lcssa, 7
  %50 = icmp eq i32 %49, 0
  %51 = sext i1 %50 to i32
  %spec.select = add i32 %.032.lcssa, %51
  %52 = lshr i32 %spec.select, 3
  %53 = zext nneg i32 %52 to i64
  %54 = getelementptr i8, ptr %18, i64 %53
  store i8 %.1, ptr %54, align 1
  call void @wtap_rec_cleanup(ptr noundef nonnull %4)
  call void @epan_dissect_cleanup(ptr noundef nonnull %7)
  %55 = load ptr, ptr %3, align 8
  call void @dfilter_free(ptr noundef %55)
  br label %.sink.split

.sink.split:                                      ; preds = %9, %._crit_edge
  %.sink = phi ptr [ %18, %._crit_edge ], [ null, %9 ]
  %.0.ph = phi i32 [ %spec.select, %._crit_edge ], [ 0, %9 ]
  store ptr %.sink, ptr %1, align 8
  br label %56

56:                                               ; preds = %.sink.split, %2
  %.0 = phi i32 [ -1, %2 ], [ %.0.ph, %.sink.split ]
  call void @llvm.lifetime.end.p0(i64 464, ptr nonnull %7) #7
  call void @llvm.lifetime.end.p0(i64 8, ptr nonnull %6) #7
  call void @llvm.lifetime.end.p0(i64 4, ptr nonnull %5) #7
  call void @llvm.lifetime.end.p0(i64 312, ptr nonnull %4) #7
  call void @llvm.lifetime.end.p0(i64 8, ptr nonnull %3) #7
  ret i32 %.0
}